target datalayout = "e-m:e-p270:32:32-p271:32:32-p272:64:64-i64:64-i128:128-f80:128-n8:16:32:64-S128"
target triple = "x86_64-pc-linux-gnu"

%struct.KBBDPrecDataRec = type { i64, i64, i64, i64, double, ptr, ptr, i64, ptr, ptr, ptr, ptr, ptr, ptr, ptr, i64, i64, i64, ptr }

; Function Attrs: nounwind uwtable
define internal i32 @KINBBDPrecSolve(ptr noundef %0, ptr noundef %1, ptr noundef %2, ptr noundef %3, ptr noundef %4, ptr noundef %5) #0 {
  %7 = alloca ptr, align 8
  %8 = alloca ptr, align 8
  %9 = alloca ptr, align 8
  %10 = alloca ptr, align 8
  %11 = alloca ptr, align 8
  %12 = alloca ptr, align 8
  %13 = alloca ptr, align 8
  %14 = alloca ptr, align 8
  %15 = alloca ptr, align 8
  %16 = alloca i32, align 4
  %17 = alloca i32, align 4
  store ptr %0, ptr %7, align 8, !tbaa !71
  store ptr %1, ptr %8, align 8, !tbaa !71
  store ptr %2, ptr %9, align 8, !tbaa !71
  store ptr %3, ptr %10, align 8, !tbaa !71
  store ptr %4, ptr %11, align 8, !tbaa !71
  store ptr %5, ptr %12, align 8, !tbaa !3
  call void @llvm.lifetime.start.p0(i64 8, ptr %13) #6
  call void @llvm.lifetime.start.p0(i64 8, ptr %14) #6
  call void @llvm.lifetime.start.p0(i64 8, ptr %15) #6
  call void @llvm.lifetime.start.p0(i64 4, ptr %16) #6
  call void @llvm.lifetime.start.p0(i64 4, ptr %17) #6
  %18 = load ptr, ptr %12, align 8, !tbaa !3
  store ptr %18, ptr %13, align 8, !tbaa !30
  %19 = load ptr, ptr %11, align 8, !tbaa !71
  %20 = call ptr @N_VGetArrayPointer(ptr noundef %19)
  store ptr %20, ptr %14, align 8, !tbaa !72
  %21 = load ptr, ptr %13, align 8, !tbaa !30
  %22 = getelementptr inbounds nuw %struct.KBBDPrecDataRec, ptr %21, i32 0, i32 11
  %23 = load ptr, ptr %22, align 8, !tbaa !44
  %24 = call ptr @N_VGetArrayPointer(ptr noundef %23)
  store ptr %24, ptr %15, align 8, !tbaa !72
  %25 = load ptr, ptr %14, align 8, !tbaa !72
  %26 = load ptr, ptr %13, align 8, !tbaa !30
  %27 = getelementptr inbounds nuw %struct.KBBDPrecDataRec, ptr %26, i32 0, i32 10
  %28 = load ptr, ptr %27, align 8, !tbaa !45
  call void @N_VSetArrayPointer(ptr noundef %25, ptr noundef %28)
  %29 = load ptr, ptr %13, align 8, !tbaa !30
  %30 = getelementptr inbounds nuw %struct.KBBDPrecDataRec, ptr %29, i32 0, i32 9
  %31 = load ptr, ptr %30, align 8, !tbaa !49
  %32 = load ptr, ptr %13, align 8, !tbaa !30
  %33 = getelementptr inbounds nuw %struct.KBBDPrecDataRec, ptr %32, i32 0, i32 8
  %34 = load ptr, ptr %33, align 8, !tbaa !42
  %35 = load ptr, ptr %13, align 8, !tbaa !30
  %36 = getelementptr inbounds nuw %struct.KBBDPrecDataRec, ptr %35, i32 0, i32 11
  %37 = load ptr, ptr %36, align 8, !tbaa !44
  %38 = load ptr, ptr %13, align 8, !tbaa !30
  %39 = getelementptr inbounds nuw %struct.KBBDPrecDataRec, ptr %38, i32 0, i32 10
  %40 = load ptr, ptr %39, align 8, !tbaa !45
  %41 = call i32 @SUNLinSolSolve(ptr noundef %31, ptr noundef %34, ptr noundef %37, ptr noundef %40, double noundef 0.000000e+00)
  store i32 %41, ptr %17, align 4, !tbaa !50
  store i32 0, ptr %16, align 4, !tbaa !50
  br label %42

42:                                               ; preds = %59, %6
  %43 = load i32, ptr %16, align 4, !tbaa !50
  %44 = sext i32 %43 to i64
  %45 = load ptr, ptr %13, align 8, !tbaa !30
  %46 = getelementptr inbounds nuw %struct.KBBDPrecDataRec, ptr %45, i32 0, i32 7
  %47 = load i64, ptr %46, align 8, !tbaa !53
  %48 = icmp slt i64 %44, %47
  br i1 %48, label %49, label %62

49:                                               ; preds = %42
  %50 = load ptr, ptr %15, align 8, !tbaa !72
  %51 = load i32, ptr %16, align 4, !tbaa !50
  %52 = sext i32 %51 to i64
  %53 = getelementptr inbounds double, ptr %50, i64 %52
  %54 = load double, ptr %53, align 8, !tbaa !9
  %55 = load ptr, ptr %14, align 8, !tbaa !72
  %56 = load i32, ptr %16, align 4, !tbaa !50
  %57 = sext i32 %56 to i64
  %58 = getelementptr inbounds double, ptr %55, i64 %57
  store double %54, ptr %58, align 8, !tbaa !9
  br label %59

59:                                               ; preds = %49
  %60 = load i32, ptr %16, align 4, !tbaa !50
  %61 = add nsw i32 %60, 1
  store i32 %61, ptr %16, align 4, !tbaa !50
  br label %42

62:                                               ; preds = %42
  %63 = load i32, ptr %17, align 4, !tbaa !50
  call void @llvm.lifetime.end.p0(i64 4, ptr %17) #6
  call void @llvm.lifetime.end.p0(i64 4, ptr %16) #6
  call void @llvm.lifetime.end.p0(i64 8, ptr %15) #6
  call void @llvm.lifetime.end.p0(i64 8, ptr %14) #6
  call void @llvm.lifetime.end.p0(i64 8, ptr %13) #6
  ret i32 %63
}