; Function Attrs: nounwind uwtable
define internal i32 @KINBBDPrecSolve(ptr readnone captures(none) %0, ptr readnone captures(none) %1, ptr readnone captures(none) %2, ptr readnone captures(none) %3, ptr noundef %4, ptr noundef readonly captures(none) %5) #0 {
  %7 = tail call ptr @N_VGetArrayPointer(ptr noundef %4) #9
  %8 = getelementptr inbounds nuw i8, ptr %5, i64 88
  %9 = load ptr, ptr %8, align 8, !tbaa !35
  %10 = tail call ptr @N_VGetArrayPointer(ptr noundef %9) #9
  %11 = getelementptr inbounds nuw i8, ptr %5, i64 80
  %12 = load ptr, ptr %11, align 8, !tbaa !36
  tail call void @N_VSetArrayPointer(ptr noundef %7, ptr noundef %12) #9
  %13 = getelementptr inbounds nuw i8, ptr %5, i64 72
  %14 = load ptr, ptr %13, align 8, !tbaa !40
  %15 = getelementptr inbounds nuw i8, ptr %5, i64 64
  %16 = load ptr, ptr %15, align 8, !tbaa !33
  %17 = load ptr, ptr %8, align 8, !tbaa !35
  %18 = load ptr, ptr %11, align 8, !tbaa !36
  %19 = tail call i32 @SUNLinSolSolve(ptr noundef %14, ptr noundef %16, ptr noundef %17, ptr noundef %18, double noundef 0.000000e+00) #9
  %20 = getelementptr inbounds nuw i8, ptr %5, i64 56
  %21 = load i64, ptr %20, align 8, !tbaa !44
  %22 = icmp sgt i64 %21, 0
  br i1 %22, label %.lr.ph, label %._crit_edge

.lr.ph:                                           ; preds = %6, %.lr.ph
  %indvars.iv = phi i64 [ %indvars.iv.next, %.lr.ph ], [ 0, %6 ]
  %23 = getelementptr inbounds nuw double, ptr %10, i64 %indvars.iv
  %24 = load double, ptr %23, align 8, !tbaa !64
  %25 = getelementptr inbounds nuw double, ptr %7, i64 %indvars.iv
  store double %24, ptr %25, align 8, !tbaa !64
  %indvars.iv.next = add nuw nsw i64 %indvars.iv, 1
  %exitcond.not = icmp eq i64 %indvars.iv.next, %21
  br i1 %exitcond.not, label %._crit_edge, label %.lr.ph

._crit_edge:                                      ; preds = %.lr.ph, %6
  ret i32 %19
}